; ModuleID = 'bench/hdf5/original/H5Sdeprec.c.ll'
source_filename = "bench/hdf5/original/H5Sdeprec.c.ll"
target datalayout = "e-m:e-p270:32:32-p271:32:32-p272:64:64-i64:64-i128:128-f80:128-n8:16:32:64-S128"
target triple = "x86_64-pc-linux-gnu"

%struct.H5P_libclass_t = type { ptr, i32, ptr, ptr, ptr, ptr, ptr, ptr, ptr, ptr, ptr, ptr, ptr }

@H5_libinit_g = external local_unnamed_addr global i8, align 1
@H5_libterm_g = external local_unnamed_addr global i8, align 1
@.str = private unnamed_addr constant [103 x i8] c"generated/home/dtcxzyw/WorkSpace/Projects/compilers/llvm-opt-benchmark/bench/hdf5/hdf5/src/H5Sdeprec.c\00", align 1
@__func__.H5Sencode1 = private unnamed_addr constant [11 x i8] c"H5Sencode1\00", align 1
@H5E_FUNC_g = external local_unnamed_addr global i64, align 8
@H5E_CANTINIT_g = external local_unnamed_addr global i64, align 8
@.str.1 = private unnamed_addr constant [30 x i8] c"library initialization failed\00", align 1
@H5E_CANTSET_g = external local_unnamed_addr global i64, align 8
@.str.2 = private unnamed_addr constant [22 x i8] c"can't set API context\00", align 1
@H5E_ARGS_g = external local_unnamed_addr global i64, align 8
@H5E_BADTYPE_g = external local_unnamed_addr global i64, align 8
@.str.3 = private unnamed_addr constant [16 x i8] c"not a dataspace\00", align 1
@H5P_CLS_FACC = external constant [1 x %struct.H5P_libclass_t], align 16
@H5E_FILE_g = external local_unnamed_addr global i64, align 8
@.str.4 = private unnamed_addr constant [36 x i8] c"can't set access property list info\00", align 1
@H5E_DATASPACE_g = external local_unnamed_addr global i64, align 8
@H5E_CANTENCODE_g = external local_unnamed_addr global i64, align 8
@.str.5 = private unnamed_addr constant [23 x i8] c"can't encode dataspace\00", align 1

; Function Attrs: nounwind uwtable
define range(i32 -1, 1) i32 @H5Sencode1(i64 noundef %0, ptr noundef %1, ptr noundef %2) local_unnamed_addr #0 {
  %4 = alloca ptr, align 8
  %5 = alloca i64, align 8
  store ptr %1, ptr %4, align 8
  store i64 0, ptr %5, align 8
  %6 = load i8, ptr @H5_libinit_g, align 1
  %7 = trunc i8 %6 to i1
  %8 = load i8, ptr @H5_libterm_g, align 1
  %9 = trunc i8 %8 to i1
  %10 = select i1 %7, i1 true, i1 %9
  br i1 %10, label %18, label %11

11:                                               ; preds = %3
  %12 = tail call i32 @H5_init_library() #2
  %13 = icmp slt i32 %12, 0
  br i1 %13, label %14, label %18

14:                                               ; preds = %11
  %15 = load i64, ptr @H5E_FUNC_g, align 8
  %16 = load i64, ptr @H5E_CANTINIT_g, align 8
  %17 = tail call i32 (ptr, ptr, i32, i64, i64, ptr, ...) @H5E_printf_stack(ptr noundef nonnull @.str, ptr noundef nonnull @__func__.H5Sencode1, i32 noundef 88, i64 noundef %15, i64 noundef %16, ptr noundef nonnull @.str.1) #2
  br label %.thread21

18:                                               ; preds = %11, %3
  %19 = tail call i32 @H5CX_push() #2
  %20 = icmp slt i32 %19, 0
  br i1 %20, label %21, label %25

21:                                               ; preds = %18
  %22 = load i64, ptr @H5E_FUNC_g, align 8
  %23 = load i64, ptr @H5E_CANTSET_g, align 8
  %24 = tail call i32 (ptr, ptr, i32, i64, i64, ptr, ...) @H5E_printf_stack(ptr noundef nonnull @.str, ptr noundef nonnull @__func__.H5Sencode1, i32 noundef 88, i64 noundef %22, i64 noundef %23, ptr noundef nonnull @.str.2) #2
  br label %.thread21

25:                                               ; preds = %18
  %26 = tail call i32 @H5E_clear_stack() #2
  %27 = tail call ptr @H5I_object_verify(i64 noundef %0, i32 noundef 4) #2
  %28 = icmp eq ptr %27, null
  br i1 %28, label %29, label %33

29:                                               ; preds = %25
  %30 = load i64, ptr @H5E_ARGS_g, align 8
  %31 = load i64, ptr @H5E_BADTYPE_g, align 8
  %32 = tail call i32 (ptr, ptr, i32, i64, i64, ptr, ...) @H5E_printf_stack(ptr noundef nonnull @.str, ptr noundef nonnull @__func__.H5Sencode1, i32 noundef 92, i64 noundef %30, i64 noundef %31, ptr noundef nonnull @.str.3) #2
  br label %.thread27

33:                                               ; preds = %25
  %34 = call i32 @H5CX_set_apl(ptr noundef nonnull %5, ptr noundef nonnull @H5P_CLS_FACC, i64 noundef -1, i1 noundef zeroext true) #2
  %35 = icmp slt i32 %34, 0
  br i1 %35, label %36, label %40

36:                                               ; preds = %33
  %37 = load i64, ptr @H5E_FILE_g, align 8
  %38 = load i64, ptr @H5E_CANTSET_g, align 8
  %39 = call i32 (ptr, ptr, i32, i64, i64, ptr, ...) @H5E_printf_stack(ptr noundef nonnull @.str, ptr noundef nonnull @__func__.H5Sencode1, i32 noundef 96, i64 noundef %37, i64 noundef %38, ptr noundef nonnull @.str.4) #2
  br label %.thread27

40:                                               ; preds = %33
  %41 = call i32 @H5S_encode(ptr noundef nonnull %27, ptr noundef nonnull %4, ptr noundef %2) #2
  %42 = icmp slt i32 %41, 0
  br i1 %42, label %43, label %48

43:                                               ; preds = %40
  %44 = load i64, ptr @H5E_DATASPACE_g, align 8
  %45 = load i64, ptr @H5E_CANTENCODE_g, align 8
  %46 = call i32 (ptr, ptr, i32, i64, i64, ptr, ...) @H5E_printf_stack(ptr noundef nonnull @.str, ptr noundef nonnull @__func__.H5Sencode1, i32 noundef 100, i64 noundef %44, i64 noundef %45, ptr noundef nonnull @.str.5) #2
  br label %.thread27

.thread27:                                        ; preds = %43, %36, %29
  %47 = call i32 @H5CX_pop(i1 noundef zeroext true) #2
  br label %.thread21

48:                                               ; preds = %40
  %49 = call i32 @H5CX_pop(i1 noundef zeroext true) #2
  br label %51

.thread21:                                        ; preds = %21, %14, %.thread27
  %50 = call i32 @H5E_dump_api_stack() #2
  br label %51

51:                                               ; preds = %48, %.thread21
  %.0111624 = phi i32 [ -1, %.thread21 ], [ 0, %48 ]
  ret i32 %.0111624
}

declare i32 @H5_init_library() local_unnamed_addr #1

declare i32 @H5E_printf_stack(ptr noundef, ptr noundef, i32 noundef, i64 noundef, i64 noundef, ptr noundef, ...) local_unnamed_addr #1

declare i32 @H5CX_push() local_unnamed_addr #1

declare i32 @H5E_clear_stack() local_unnamed_addr #1

declare ptr @H5I_object_verify(i64 noundef, i32 noundef) local_unnamed_addr #1

declare i32 @H5CX_set_apl(ptr noundef, ptr noundef, i64 noundef, i1 noundef zeroext) local_unnamed_addr #1

declare i32 @H5S_encode(ptr noundef, ptr noundef, ptr noundef) local_unnamed_addr #1

declare i32 @H5CX_pop(i1 noundef zeroext) local_unnamed_addr #1

declare i32 @H5E_dump_api_stack() local_unnamed_addr #1


!llvm.module.flags = !{!0, !1, !2, !3}

!0 = !{i32 1, !"wchar_size", i32 4}
!1 = !{i32 8, !"PIC Level", i32 2}
!2 = !{i32 7, !"uwtable", i32 2}
!3 = !{i32 7, !"frame-pointer", i32 2}
